; ModuleID = 'source-C-CXX/44/595.c'
source_filename = "source-C-CXX/44/595.c"
target datalayout = "e-m:e-p270:32:32-p271:32:32-p272:64:64-i64:64-f80:128-n8:16:32:64-S128"
target triple = "x86_64-pc-linux-gnu"

@.str = private unnamed_addr constant [6 x i8] c"%s %s\00", align 1
@.str.1 = private unnamed_addr constant [4 x i8] c"%d\0A\00", align 1

; Function Attrs: nofree nounwind sspstrong uwtable
define dso_local void @main() local_unnamed_addr #0 {
  %1 = alloca [50 x i8], align 16
  %2 = alloca [50 x i8], align 16
  %3 = getelementptr inbounds [50 x i8], [50 x i8]* %1, i64 0, i64 0
  call void @llvm.lifetime.start.p0i8(i64 50, i8* nonnull %3) #3
  %4 = getelementptr inbounds [50 x i8], [50 x i8]* %2, i64 0, i64 0
  call void @llvm.lifetime.start.p0i8(i64 50, i8* nonnull %4) #3
  %5 = call i32 (i8*, ...) @__isoc99_scanf(i8* getelementptr inbounds ([6 x i8], [6 x i8]* @.str, i64 0, i64 0), i8* nonnull %3, i8* nonnull %4)
  %6 = load i8, i8* %3, align 16
  %7 = load i8, i8* %4, align 16, !tbaa !5
  %8 = icmp eq i8 %7, 0
  br i1 %8, label %40, label %9

9:                                                ; preds = %0
  %10 = icmp eq i8 %6, 0
  br i1 %10, label %11, label %16

11:                                               ; preds = %9, %11
  %12 = phi i8* [ %13, %11 ], [ %4, %9 ]
  %13 = getelementptr inbounds i8, i8* %12, i64 1
  %14 = load i8, i8* %13, align 1, !tbaa !5
  %15 = icmp eq i8 %14, 0
  br i1 %15, label %40, label %11, !llvm.loop !8

16:                                               ; preds = %9, %35
  %17 = phi i8 [ %38, %35 ], [ %7, %9 ]
  %18 = phi i8* [ %37, %35 ], [ %4, %9 ]
  %19 = icmp eq i8 %17, %6
  br i1 %19, label %20, label %35

20:                                               ; preds = %16, %27
  %21 = phi i8* [ %24, %27 ], [ %18, %16 ]
  %22 = phi i8* [ %23, %27 ], [ %3, %16 ]
  %23 = getelementptr inbounds i8, i8* %22, i64 1
  %24 = getelementptr inbounds i8, i8* %21, i64 1
  %25 = load i8, i8* %23, align 1, !tbaa !5
  %26 = icmp eq i8 %25, 0
  br i1 %26, label %30, label %27, !llvm.loop !10

27:                                               ; preds = %20
  %28 = load i8, i8* %24, align 1, !tbaa !5
  %29 = icmp eq i8 %25, %28
  br i1 %29, label %20, label %35

30:                                               ; preds = %20
  %31 = ptrtoint i8* %18 to i64
  %32 = ptrtoint [50 x i8]* %2 to i64
  %33 = sub i64 %31, %32
  %34 = call i32 (i8*, ...) @printf(i8* nonnull dereferenceable(1) getelementptr inbounds ([4 x i8], [4 x i8]* @.str.1, i64 0, i64 0), i64 %33)
  br label %40

35:                                               ; preds = %27, %16
  %36 = phi i8* [ %18, %16 ], [ %24, %27 ]
  %37 = getelementptr inbounds i8, i8* %36, i64 1
  %38 = load i8, i8* %37, align 1, !tbaa !5
  %39 = icmp eq i8 %38, 0
  br i1 %39, label %40, label %16, !llvm.loop !8

40:                                               ; preds = %35, %11, %0, %30
  call void @llvm.lifetime.end.p0i8(i64 50, i8* nonnull %4) #3
  call void @llvm.lifetime.end.p0i8(i64 50, i8* nonnull %3) #3
  ret void
}

; Function Attrs: argmemonly mustprogress nofree nosync nounwind willreturn
declare void @llvm.lifetime.start.p0i8(i64 immarg, i8* nocapture) #1

; Function Attrs: nofree nounwind
declare noundef i32 @__isoc99_scanf(i8* nocapture noundef readonly, ...) local_unnamed_addr #2

; Function Attrs: nofree nounwind
declare noundef i32 @printf(i8* nocapture noundef readonly, ...) local_unnamed_addr #2

; Function Attrs: argmemonly mustprogress nofree nosync nounwind willreturn
declare void @llvm.lifetime.end.p0i8(i64 immarg, i8* nocapture) #1


!llvm.module.flags = !{!0, !1, !2, !3}
!llvm.ident = !{!4}

!0 = !{i32 1, !"wchar_size", i32 4}
!1 = !{i32 7, !"PIC Level", i32 2}
!2 = !{i32 7, !"PIE Level", i32 2}
!3 = !{i32 7, !"uwtable", i32 1}
!4 = !{!"clang version 13.0.0"}
!5 = !{!6, !6, i64 0}
!6 = !{!"omnipotent char", !7, i64 0}
!7 = !{!"Simple C/C++ TBAA"}
!8 = distinct !{!8, !9}
!9 = !{!"llvm.loop.mustprogress"}
!10 = distinct !{!10, !9}
